target datalayout = "e-m:e-p270:32:32-p271:32:32-p272:64:64-i64:64-i128:128-f80:128-n8:16:32:64-S128"
target triple = "x86_64-pc-linux-gnu"

%struct.RelMapFile = type { i32, i32, [64 x %struct.RelMapping], i32 }
%struct.RelMapping = type { i32, i32 }

@active_shared_updates = internal global %struct.RelMapFile zeroinitializer, align 4
@shared_map = internal global %struct.RelMapFile zeroinitializer, align 4
@active_local_updates = internal global %struct.RelMapFile zeroinitializer, align 4
@local_map = internal global %struct.RelMapFile zeroinitializer, align 4
@Mode = external global i32, align 4
@.str = private unnamed_addr constant [53 x i8] c"cannot change relation mapping within subtransaction\00", align 1
@.str.1 = private unnamed_addr constant [12 x i8] c"relmapper.c\00", align 1
@__func__.RelationMapUpdateMap = private unnamed_addr constant [21 x i8] c"RelationMapUpdateMap\00", align 1
@.str.2 = private unnamed_addr constant [48 x i8] c"cannot change relation mapping in parallel mode\00", align 1
@pending_shared_updates = internal global %struct.RelMapFile zeroinitializer, align 4
@pending_local_updates = internal global %struct.RelMapFile zeroinitializer, align 4
@.str.9 = private unnamed_addr constant [51 x i8] c"attempt to apply a mapping to unmapped relation %u\00", align 1
@__func__.apply_map_update = private unnamed_addr constant [17 x i8] c"apply_map_update\00", align 1
@.str.10 = private unnamed_addr constant [33 x i8] c"ran out of space in relation map\00", align 1

; Function Attrs: nounwind uwtable
define internal void @apply_map_update(ptr noundef %0, i32 noundef %1, i32 noundef %2, i1 noundef zeroext %3) #0 {
  %5 = alloca ptr, align 8
  %6 = alloca i32, align 4
  %7 = alloca i32, align 4
  %8 = alloca i8, align 1
  %9 = alloca i32, align 4
  %10 = alloca i32, align 4
  store ptr %0, ptr %5, align 8
  store i32 %1, ptr %6, align 4
  store i32 %2, ptr %7, align 4
  %11 = zext i1 %3 to i8
  store i8 %11, ptr %8, align 1
  call void @llvm.lifetime.start.p0(i64 4, ptr %9) #8
  store i32 0, ptr %9, align 4
  br label %12

12:                                               ; preds = %37, %4
  %13 = load i32, ptr %9, align 4
  %14 = load ptr, ptr %5, align 8
  %15 = getelementptr inbounds nuw %struct.RelMapFile, ptr %14, i32 0, i32 1
  %16 = load i32, ptr %15, align 4
  %17 = icmp slt i32 %13, %16
  br i1 %17, label %18, label %40

18:                                               ; preds = %12
  %19 = load i32, ptr %6, align 4
  %20 = load ptr, ptr %5, align 8
  %21 = getelementptr inbounds nuw %struct.RelMapFile, ptr %20, i32 0, i32 2
  %22 = load i32, ptr %9, align 4
  %23 = sext i32 %22 to i64
  %24 = getelementptr inbounds [64 x %struct.RelMapping], ptr %21, i64 0, i64 %23
  %25 = getelementptr inbounds nuw %struct.RelMapping, ptr %24, i32 0, i32 0
  %26 = load i32, ptr %25, align 4
  %27 = icmp eq i32 %19, %26
  br i1 %27, label %28, label %36

28:                                               ; preds = %18
  %29 = load i32, ptr %7, align 4
  %30 = load ptr, ptr %5, align 8
  %31 = getelementptr inbounds nuw %struct.RelMapFile, ptr %30, i32 0, i32 2
  %32 = load i32, ptr %9, align 4
  %33 = sext i32 %32 to i64
  %34 = getelementptr inbounds [64 x %struct.RelMapping], ptr %31, i64 0, i64 %33
  %35 = getelementptr inbounds nuw %struct.RelMapping, ptr %34, i32 0, i32 1
  store i32 %29, ptr %35, align 4
  store i32 1, ptr %10, align 4
  br label %94

36:                                               ; preds = %18
  br label %37

37:                                               ; preds = %36
  %38 = load i32, ptr %9, align 4
  %39 = add i32 %38, 1
  store i32 %39, ptr %9, align 4
  br label %12, !llvm.loop !17

40:                                               ; preds = %12
  %41 = load i8, ptr %8, align 1, !range !4, !noundef !5
  %42 = trunc i8 %41 to i1
  br i1 %42, label %55, label %43

43:                                               ; preds = %40
  br label %44

44:                                               ; preds = %43
  br i1 true, label %45, label %47

45:                                               ; preds = %44
  %46 = call zeroext i1 @errstart_cold(i32 noundef 21, ptr noundef null) #9
  br i1 %46, label %49, label %52

47:                                               ; preds = %44
  %48 = call zeroext i1 @errstart(i32 noundef 21, ptr noundef null)
  br i1 %48, label %49, label %52

49:                                               ; preds = %47, %45
  %50 = load i32, ptr %6, align 4
  %51 = call i32 (ptr, ...) @errmsg_internal(ptr noundef @.str.9, i32 noundef %50)
  call void @errfinish(ptr noundef @.str.1, i32 noundef 401, ptr noundef @__func__.apply_map_update)
  br label %52

52:                                               ; preds = %49, %47, %45
  unreachable

53:                                               ; No predecessors!
  br label %54

54:                                               ; preds = %53
  br label %55

55:                                               ; preds = %54, %40
  %56 = load ptr, ptr %5, align 8
  %57 = getelementptr inbounds nuw %struct.RelMapFile, ptr %56, i32 0, i32 1
  %58 = load i32, ptr %57, align 4
  %59 = icmp sge i32 %58, 64
  br i1 %59, label %60, label %71

60:                                               ; preds = %55
  br label %61

61:                                               ; preds = %60
  br i1 true, label %62, label %64

62:                                               ; preds = %61
  %63 = call zeroext i1 @errstart_cold(i32 noundef 21, ptr noundef null) #9
  br i1 %63, label %66, label %68

64:                                               ; preds = %61
  %65 = call zeroext i1 @errstart(i32 noundef 21, ptr noundef null)
  br i1 %65, label %66, label %68

66:                                               ; preds = %64, %62
  %67 = call i32 (ptr, ...) @errmsg_internal(ptr noundef @.str.10)
  call void @errfinish(ptr noundef @.str.1, i32 noundef 403, ptr noundef @__func__.apply_map_update)
  br label %68

68:                                               ; preds = %66, %64, %62
  unreachable

69:                                               ; No predecessors!
  br label %70

70:                                               ; preds = %69
  br label %71

71:                                               ; preds = %70, %55
  %72 = load i32, ptr %6, align 4
  %73 = load ptr, ptr %5, align 8
  %74 = getelementptr inbounds nuw %struct.RelMapFile, ptr %73, i32 0, i32 2
  %75 = load ptr, ptr %5, align 8
  %76 = getelementptr inbounds nuw %struct.RelMapFile, ptr %75, i32 0, i32 1
  %77 = load i32, ptr %76, align 4
  %78 = sext i32 %77 to i64
  %79 = getelementptr inbounds [64 x %struct.RelMapping], ptr %74, i64 0, i64 %78
  %80 = getelementptr inbounds nuw %struct.RelMapping, ptr %79, i32 0, i32 0
  store i32 %72, ptr %80, align 4
  %81 = load i32, ptr %7, align 4
  %82 = load ptr, ptr %5, align 8
  %83 = getelementptr inbounds nuw %struct.RelMapFile, ptr %82, i32 0, i32 2
  %84 = load ptr, ptr %5, align 8
  %85 = getelementptr inbounds nuw %struct.RelMapFile, ptr %84, i32 0, i32 1
  %86 = load i32, ptr %85, align 4
  %87 = sext i32 %86 to i64
  %88 = getelementptr inbounds [64 x %struct.RelMapping], ptr %83, i64 0, i64 %87
  %89 = getelementptr inbounds nuw %struct.RelMapping, ptr %88, i32 0, i32 1
  store i32 %81, ptr %89, align 4
  %90 = load ptr, ptr %5, align 8
  %91 = getelementptr inbounds nuw %struct.RelMapFile, ptr %90, i32 0, i32 1
  %92 = load i32, ptr %91, align 4
  %93 = add i32 %92, 1
  store i32 %93, ptr %91, align 4
  store i32 0, ptr %10, align 4
  br label %94

94:                                               ; preds = %71, %28
  call void @llvm.lifetime.end.p0(i64 4, ptr %9) #8
  %95 = load i32, ptr %10, align 4
  switch i32 %95, label %97 [
    i32 0, label %96
    i32 1, label %96
  ]

96:                                               ; preds = %94, %94
  ret void

97:                                               ; preds = %94
  unreachable
}

; Function Attrs: nounwind uwtable
define dso_local void @RelationMapUpdateMap(i32 noundef %0, i32 noundef %1, i1 noundef zeroext %2, i1 noundef zeroext %3) #0 {
  %5 = alloca i32, align 4
  %6 = alloca i32, align 4
  %7 = alloca i8, align 1
  %8 = alloca i8, align 1
  %9 = alloca ptr, align 8
  store i32 %0, ptr %5, align 4
  store i32 %1, ptr %6, align 4
  %10 = zext i1 %2 to i8
  store i8 %10, ptr %7, align 1
  %11 = zext i1 %3 to i8
  store i8 %11, ptr %8, align 1
  call void @llvm.lifetime.start.p0(i64 8, ptr %9) #8
  %12 = load i32, ptr @Mode, align 4
  %13 = icmp eq i32 %12, 0
  br i1 %13, label %14, label %20

14:                                               ; preds = %4
  %15 = load i8, ptr %7, align 1, !range !4, !noundef !5
  %16 = trunc i8 %15 to i1
  br i1 %16, label %17, label %18

17:                                               ; preds = %14
  store ptr @shared_map, ptr %9, align 8
  br label %19

18:                                               ; preds = %14
  store ptr @local_map, ptr %9, align 8
  br label %19

19:                                               ; preds = %18, %17
  br label %63

20:                                               ; preds = %4
  %21 = call i32 @GetCurrentTransactionNestLevel()
  %22 = icmp sgt i32 %21, 1
  br i1 %22, label %23, label %34

23:                                               ; preds = %20
  br label %24

24:                                               ; preds = %23
  br i1 true, label %25, label %27

25:                                               ; preds = %24
  %26 = call zeroext i1 @errstart_cold(i32 noundef 21, ptr noundef null) #9
  br i1 %26, label %29, label %31

27:                                               ; preds = %24
  %28 = call zeroext i1 @errstart(i32 noundef 21, ptr noundef null)
  br i1 %28, label %29, label %31

29:                                               ; preds = %27, %25
  %30 = call i32 (ptr, ...) @errmsg_internal(ptr noundef @.str)
  call void @errfinish(ptr noundef @.str.1, i32 noundef 348, ptr noundef @__func__.RelationMapUpdateMap)
  br label %31

31:                                               ; preds = %29, %27, %25
  unreachable

32:                                               ; No predecessors!
  br label %33

33:                                               ; preds = %32
  br label %34

34:                                               ; preds = %33, %20
  %35 = call zeroext i1 @IsInParallelMode()
  br i1 %35, label %36, label %47

36:                                               ; preds = %34
  br label %37

37:                                               ; preds = %36
  br i1 true, label %38, label %40

38:                                               ; preds = %37
  %39 = call zeroext i1 @errstart_cold(i32 noundef 21, ptr noundef null) #9
  br i1 %39, label %42, label %44

40:                                               ; preds = %37
  %41 = call zeroext i1 @errstart(i32 noundef 21, ptr noundef null)
  br i1 %41, label %42, label %44

42:                                               ; preds = %40, %38
  %43 = call i32 (ptr, ...) @errmsg_internal(ptr noundef @.str.2)
  call void @errfinish(ptr noundef @.str.1, i32 noundef 351, ptr noundef @__func__.RelationMapUpdateMap)
  br label %44

44:                                               ; preds = %42, %40, %38
  unreachable

45:                                               ; No predecessors!
  br label %46

46:                                               ; preds = %45
  br label %47

47:                                               ; preds = %46, %34
  %48 = load i8, ptr %8, align 1, !range !4, !noundef !5
  %49 = trunc i8 %48 to i1
  br i1 %49, label %50, label %56

50:                                               ; preds = %47
  %51 = load i8, ptr %7, align 1, !range !4, !noundef !5
  %52 = trunc i8 %51 to i1
  br i1 %52, label %53, label %54

53:                                               ; preds = %50
  store ptr @active_shared_updates, ptr %9, align 8
  br label %55

54:                                               ; preds = %50
  store ptr @active_local_updates, ptr %9, align 8
  br label %55

55:                                               ; preds = %54, %53
  br label %62

56:                                               ; preds = %47
  %57 = load i8, ptr %7, align 1, !range !4, !noundef !5
  %58 = trunc i8 %57 to i1
  br i1 %58, label %59, label %60

59:                                               ; preds = %56
  store ptr @pending_shared_updates, ptr %9, align 8
  br label %61

60:                                               ; preds = %56
  store ptr @pending_local_updates, ptr %9, align 8
  br label %61

61:                                               ; preds = %60, %59
  br label %62

62:                                               ; preds = %61, %55
  br label %63

63:                                               ; preds = %62, %19
  %64 = load ptr, ptr %9, align 8
  %65 = load i32, ptr %5, align 4
  %66 = load i32, ptr %6, align 4
  call void @apply_map_update(ptr noundef %64, i32 noundef %65, i32 noundef %66, i1 noundef zeroext true)
  call void @llvm.lifetime.end.p0(i64 8, ptr %9) #8
  ret void
}