; Function Attrs: nounwind uwtable
define dso_local void @RelationMapUpdateMap(i32 noundef %0, i32 noundef %1, i1 noundef zeroext %2, i1 noundef zeroext %3) local_unnamed_addr #2 {
  %5 = load i32, ptr @Mode, align 4
  %6 = icmp eq i32 %5, 0
  br i1 %6, label %7, label %8

7:                                                ; preds = %4
  %shared_map.local_map = select i1 %2, ptr @shared_map, ptr @local_map
  br label %22

8:                                                ; preds = %4
  %9 = tail call i32 @GetCurrentTransactionNestLevel() #12
  %10 = icmp sgt i32 %9, 1
  br i1 %10, label %11, label %14

11:                                               ; preds = %8
  %12 = tail call zeroext i1 @errstart_cold(i32 noundef 21, ptr noundef null) #13
  tail call void @llvm.assume(i1 %12)
  %13 = tail call i32 (ptr, ...) @errmsg_internal(ptr noundef nonnull @.str) #12
  tail call void @errfinish(ptr noundef nonnull @.str.1, i32 noundef 348, ptr noundef nonnull @__func__.RelationMapUpdateMap) #12
  unreachable

14:                                               ; preds = %8
  %15 = tail call zeroext i1 @IsInParallelMode() #12
  br i1 %15, label %16, label %19

16:                                               ; preds = %14
  %17 = tail call zeroext i1 @errstart_cold(i32 noundef 21, ptr noundef null) #13
  tail call void @llvm.assume(i1 %17)
  %18 = tail call i32 (ptr, ...) @errmsg_internal(ptr noundef nonnull @.str.2) #12
  tail call void @errfinish(ptr noundef nonnull @.str.1, i32 noundef 351, ptr noundef nonnull @__func__.RelationMapUpdateMap) #12
  unreachable

19:                                               ; preds = %14
  br i1 %3, label %20, label %21

20:                                               ; preds = %19
  %active_shared_updates.active_local_updates = select i1 %2, ptr @active_shared_updates, ptr @active_local_updates
  br label %22

21:                                               ; preds = %19
  %pending_shared_updates.pending_local_updates = select i1 %2, ptr @pending_shared_updates, ptr @pending_local_updates
  br label %22

22:                                               ; preds = %21, %20, %7
  %.0 = phi ptr [ %shared_map.local_map, %7 ], [ %active_shared_updates.active_local_updates, %20 ], [ %pending_shared_updates.pending_local_updates, %21 ]
  %23 = getelementptr inbounds nuw i8, ptr %.0, i64 4
  %24 = load i32, ptr %23, align 4
  %25 = icmp sgt i32 %24, 0
  br i1 %25, label %.lr.ph.i, label %._crit_edge.i.thread

.lr.ph.i:                                         ; preds = %22
  %26 = getelementptr inbounds nuw i8, ptr %.0, i64 8
  %wide.trip.count.i = zext nneg i32 %24 to i64
  br label %28

27:                                               ; preds = %28
  %indvars.iv.next.i = add nuw nsw i64 %indvars.iv.i, 1
  %exitcond.not.i = icmp eq i64 %indvars.iv.next.i, %wide.trip.count.i
  br i1 %exitcond.not.i, label %._crit_edge.i, label %28, !llvm.loop !15

28:                                               ; preds = %27, %.lr.ph.i
  %indvars.iv.i = phi i64 [ 0, %.lr.ph.i ], [ %indvars.iv.next.i, %27 ]
  %29 = getelementptr inbounds nuw [64 x %struct.RelMapping], ptr %26, i64 0, i64 %indvars.iv.i
  %30 = load i32, ptr %29, align 4
  %31 = icmp eq i32 %0, %30
  br i1 %31, label %32, label %27

32:                                               ; preds = %28
  %.idx26.i = shl nuw nsw i64 %indvars.iv.i, 3
  %.offs27.i = or disjoint i64 %.idx26.i, 4
  %33 = getelementptr inbounds nuw i8, ptr %26, i64 %.offs27.i
  store i32 %1, ptr %33, align 4
  br label %apply_map_update.exit

._crit_edge.i:                                    ; preds = %27
  %34 = icmp sgt i32 %24, 63
  br i1 %34, label %35, label %._crit_edge.i.thread

35:                                               ; preds = %._crit_edge.i
  %36 = tail call zeroext i1 @errstart_cold(i32 noundef 21, ptr noundef null) #13
  tail call void @llvm.assume(i1 %36)
  %37 = tail call i32 (ptr, ...) @errmsg_internal(ptr noundef nonnull @.str.10) #12
  tail call void @errfinish(ptr noundef nonnull @.str.1, i32 noundef 403, ptr noundef nonnull @__func__.apply_map_update) #12
  unreachable

._crit_edge.i.thread:                             ; preds = %22, %._crit_edge.i
  %38 = getelementptr inbounds nuw i8, ptr %.0, i64 8
  %39 = sext i32 %24 to i64
  %40 = getelementptr inbounds [64 x %struct.RelMapping], ptr %38, i64 0, i64 %39
  store i32 %0, ptr %40, align 4
  %.idx.i = shl nsw i64 %39, 3
  %.offs.i = or disjoint i64 %.idx.i, 4
  %41 = getelementptr inbounds i8, ptr %38, i64 %.offs.i
  store i32 %1, ptr %41, align 4
  %42 = load i32, ptr %23, align 4
  %43 = add i32 %42, 1
  store i32 %43, ptr %23, align 4
  br label %apply_map_update.exit

apply_map_update.exit:                            ; preds = %32, %._crit_edge.i.thread
  ret void
}